target datalayout = "e-m:e-p270:32:32-p271:32:32-p272:64:64-i64:64-i128:128-f80:128-n8:16:32:64-S128"
target triple = "x86_64-pc-linux-gnu"

%struct.quic_sstream_st = type { %struct.ring_buf, %struct.ossl_list_st_uint_set, %struct.ossl_list_st_uint_set, i8 }
%struct.ring_buf = type { ptr, i64, i64, i64 }
%struct.ossl_list_st_uint_set = type { ptr, ptr, i64 }
%struct.uint_set_item_st = type { %struct.anon, %struct.uint_range_st }
%struct.anon = type { ptr, ptr }
%struct.uint_range_st = type { i64, i64 }

; Function Attrs: inlinehint nounwind uwtable
define internal ptr @ossl_list_uint_set_head(ptr noundef %0) #3 {
  %2 = alloca ptr, align 8
  store ptr %0, ptr %2, align 8, !tbaa !45
  %3 = load ptr, ptr %2, align 8, !tbaa !45
  %4 = getelementptr inbounds nuw %struct.ossl_list_st_uint_set, ptr %3, i32 0, i32 0
  %5 = load ptr, ptr %4, align 8, !tbaa !47
  ret ptr %5
}

; Function Attrs: inlinehint nounwind uwtable
define internal i64 @ossl_list_uint_set_num(ptr noundef %0) #3 {
  %2 = alloca ptr, align 8
  store ptr %0, ptr %2, align 8, !tbaa !45
  %3 = load ptr, ptr %2, align 8, !tbaa !45
  %4 = getelementptr inbounds nuw %struct.ossl_list_st_uint_set, ptr %3, i32 0, i32 2
  %5 = load i64, ptr %4, align 8, !tbaa !58
  ret i64 %5
}

; Function Attrs: nounwind uwtable
define i64 @ossl_quic_sstream_get_cur_size(ptr noundef %0) #0 {
  %2 = alloca ptr, align 8
  store ptr %0, ptr %2, align 8, !tbaa !7
  %3 = load ptr, ptr %2, align 8, !tbaa !7
  %4 = getelementptr inbounds nuw %struct.quic_sstream_st, ptr %3, i32 0, i32 0
  %5 = getelementptr inbounds nuw %struct.ring_buf, ptr %4, i32 0, i32 2
  %6 = load i64, ptr %5, align 8, !tbaa !31
  ret i64 %6
}

; Function Attrs: nounwind uwtable
define i32 @ossl_quic_sstream_is_totally_acked(ptr noundef %0) #0 {
  %2 = alloca i32, align 4
  %3 = alloca ptr, align 8
  %4 = alloca %struct.uint_range_st, align 8
  %5 = alloca i64, align 8
  %6 = alloca i32, align 4
  store ptr %0, ptr %3, align 8, !tbaa !7
  call void @llvm.lifetime.start.p0(i64 16, ptr %4) #6
  call void @llvm.lifetime.start.p0(i64 8, ptr %5) #6
  %7 = load ptr, ptr %3, align 8, !tbaa !7
  %8 = getelementptr inbounds nuw %struct.quic_sstream_st, ptr %7, i32 0, i32 3
  %9 = load i8, ptr %8, align 8
  %10 = and i8 %9, 1
  %11 = zext i8 %10 to i32
  %12 = icmp ne i32 %11, 0
  br i1 %12, label %13, label %22

13:                                               ; preds = %1
  %14 = load ptr, ptr %3, align 8, !tbaa !7
  %15 = getelementptr inbounds nuw %struct.quic_sstream_st, ptr %14, i32 0, i32 3
  %16 = load i8, ptr %15, align 8
  %17 = lshr i8 %16, 2
  %18 = and i8 %17, 1
  %19 = zext i8 %18 to i32
  %20 = icmp ne i32 %19, 0
  br i1 %20, label %22, label %21

21:                                               ; preds = %13
  store i32 0, ptr %2, align 4
  store i32 1, ptr %6, align 4
  br label %54

22:                                               ; preds = %13, %1
  %23 = load ptr, ptr %3, align 8, !tbaa !7
  %24 = call i64 @ossl_quic_sstream_get_cur_size(ptr noundef %23)
  %25 = icmp eq i64 %24, 0
  br i1 %25, label %26, label %27

26:                                               ; preds = %22
  store i32 1, ptr %2, align 4
  store i32 1, ptr %6, align 4
  br label %54

27:                                               ; preds = %22
  %28 = load ptr, ptr %3, align 8, !tbaa !7
  %29 = getelementptr inbounds nuw %struct.quic_sstream_st, ptr %28, i32 0, i32 2
  %30 = call i64 @ossl_list_uint_set_num(ptr noundef %29)
  %31 = icmp ne i64 %30, 1
  br i1 %31, label %32, label %33

32:                                               ; preds = %27
  store i32 0, ptr %2, align 4
  store i32 1, ptr %6, align 4
  br label %54

33:                                               ; preds = %27
  %34 = load ptr, ptr %3, align 8, !tbaa !7
  %35 = getelementptr inbounds nuw %struct.quic_sstream_st, ptr %34, i32 0, i32 2
  %36 = call ptr @ossl_list_uint_set_head(ptr noundef %35)
  %37 = getelementptr inbounds nuw %struct.uint_set_item_st, ptr %36, i32 0, i32 1
  call void @llvm.memcpy.p0.p0.i64(ptr align 8 %4, ptr align 8 %37, i64 16, i1 false), !tbaa.struct !57
  %38 = load ptr, ptr %3, align 8, !tbaa !7
  %39 = getelementptr inbounds nuw %struct.quic_sstream_st, ptr %38, i32 0, i32 0
  %40 = getelementptr inbounds nuw %struct.ring_buf, ptr %39, i32 0, i32 2
  %41 = load i64, ptr %40, align 8, !tbaa !31
  store i64 %41, ptr %5, align 8, !tbaa !3
  %42 = getelementptr inbounds nuw %struct.uint_range_st, ptr %4, i32 0, i32 0
  %43 = load i64, ptr %42, align 8, !tbaa !51
  %44 = icmp eq i64 %43, 0
  br i1 %44, label %45, label %51

45:                                               ; preds = %33
  %46 = getelementptr inbounds nuw %struct.uint_range_st, ptr %4, i32 0, i32 1
  %47 = load i64, ptr %46, align 8, !tbaa !52
  %48 = add i64 %47, 1
  %49 = load i64, ptr %5, align 8, !tbaa !3
  %50 = icmp eq i64 %48, %49
  br label %51

51:                                               ; preds = %45, %33
  %52 = phi i1 [ false, %33 ], [ %50, %45 ]
  %53 = zext i1 %52 to i32
  store i32 %53, ptr %2, align 4
  store i32 1, ptr %6, align 4
  br label %54

54:                                               ; preds = %51, %32, %26, %21
  call void @llvm.lifetime.end.p0(i64 8, ptr %5) #6
  call void @llvm.lifetime.end.p0(i64 16, ptr %4) #6
  %55 = load i32, ptr %2, align 4
  ret i32 %55
}