; Function Attrs: mustprogress nofree norecurse nosync nounwind willreturn memory(read, inaccessiblemem: none) uwtable
define range(i32 0, 2) i32 @ossl_quic_sstream_is_totally_acked(ptr noundef readonly captures(none) %0) local_unnamed_addr #8 {
  %2 = getelementptr inbounds nuw i8, ptr %0, i64 80
  %3 = load i8, ptr %2, align 8
  %4 = and i8 %3, 5
  %or.cond = icmp eq i8 %4, 1
  br i1 %or.cond, label %19, label %5

5:                                                ; preds = %1
  %6 = getelementptr inbounds nuw i8, ptr %0, i64 16
  %7 = load i64, ptr %6, align 8, !tbaa !17
  %8 = icmp eq i64 %7, 0
  br i1 %8, label %19, label %9

9:                                                ; preds = %5
  %10 = getelementptr i8, ptr %0, i64 72
  %.val9 = load i64, ptr %10, align 8, !tbaa !40
  %.not8 = icmp eq i64 %.val9, 1
  br i1 %.not8, label %11, label %19

11:                                               ; preds = %9
  %12 = getelementptr inbounds nuw i8, ptr %0, i64 56
  %.val = load ptr, ptr %12, align 8, !tbaa !35
  %13 = getelementptr inbounds nuw i8, ptr %.val, i64 16
  %.sroa.0.0.copyload = load i64, ptr %13, align 8, !tbaa !12
  %.sroa.4.0..sroa_idx = getelementptr inbounds nuw i8, ptr %.val, i64 24
  %.sroa.4.0.copyload = load i64, ptr %.sroa.4.0..sroa_idx, align 8, !tbaa !12
  %14 = icmp eq i64 %.sroa.0.0.copyload, 0
  %15 = add i64 %.sroa.4.0.copyload, 1
  %16 = icmp eq i64 %15, %7
  %17 = select i1 %14, i1 %16, i1 false
  %18 = zext i1 %17 to i32
  br label %19

19:                                               ; preds = %9, %5, %1, %11
  %.0 = phi i32 [ %18, %11 ], [ 0, %1 ], [ 1, %5 ], [ 0, %9 ]
  ret i32 %.0
}